target datalayout = "e-m:e-p270:32:32-p271:32:32-p272:64:64-i64:64-i128:128-f80:128-n8:16:32:64-S128"
target triple = "x86_64-unknown-linux-gnu"

%"class.std::basic_string_view" = type { i64, ptr }
%struct.grpc_transport_stream_op_batch = type { ptr, ptr, i8, %struct.grpc_handler_private_op_data }
%struct.grpc_handler_private_op_data = type { ptr, %struct.grpc_closure }
%struct.grpc_closure = type { %union.anon.138, ptr, ptr, %union.anon.140 }
%union.anon.138 = type { ptr }
%union.anon.140 = type { i64 }
%"struct.std::atomic" = type { %"struct.std::__atomic_base" }
%"struct.std::__atomic_base" = type { i64 }
%"class.grpc_core::promise_detail::PromiseLike.232" = type { %class.anon.233 }
%class.anon.233 = type { %"class.grpc_core::RefCountedPtr.234", %class.anon.235 }
%"class.grpc_core::RefCountedPtr.234" = type { ptr }
%class.anon.235 = type { ptr }
%"class.grpc_core::Orphanable" = type { ptr }
%"class.grpc_core::Party" = type { %"class.grpc_core::Activity", %"class.grpc_core::Wakeable", %"class.grpc_core::PartySyncUsingAtomics", ptr, i8, [16 x %"struct.std::atomic.193"] }
%"class.grpc_core::Activity" = type { %"class.grpc_core::Orphanable" }
%"class.grpc_core::Wakeable" = type { ptr }
%"class.grpc_core::PartySyncUsingAtomics" = type { %"struct.std::atomic" }
%"struct.std::atomic.193" = type { %"struct.std::__atomic_base.194" }
%"struct.std::__atomic_base.194" = type { ptr }
%"class.grpc_core::Party::Participant" = type { ptr, ptr, %"class.std::basic_string_view" }
%"struct.grpc_core::BatchBuilder::Batch" = type <{ %struct.grpc_transport_stream_op_batch, ptr, ptr, ptr, ptr, %"class.grpc_core::RefCountedPtr.400", ptr, i8, [7 x i8] }>
%"class.grpc_core::RefCountedPtr.400" = type { ptr }
%"class.grpc_core::Party::ParticipantImpl.630" = type <{ %"class.grpc_core::Party::Participant", %union.anon.631, i8, [7 x i8] }>
%union.anon.631 = type { %"class.grpc_core::promise_detail::OncePromiseFactory.632" }
%"class.grpc_core::promise_detail::OncePromiseFactory.632" = type { %class.anon.233 }

@.str.19 = private unnamed_addr constant [118 x i8] c"generated/home/dtcxzyw/WorkSpace/Projects/compilers/llvm-opt-benchmark/bench/grpc/grpc/src/core/lib/promise/context.h\00", align 1
@.str.20 = private unnamed_addr constant [13 x i8] c"p != nullptr\00", align 1
@_ZN9grpc_core14promise_detail7ContextINS_5ArenaEE8current_E = linkonce_odr thread_local global ptr null, comdat, align 8

; Function Attrs: mustprogress nounwind uwtable
define linkonce_odr void @_ZN9grpc_core5Arena12DeletePooledINS_12BatchBuilder5BatchEEEvPT_(ptr noundef nonnull align 8 dereferenceable(48) %this, ptr noundef %p) #4 comdat align 2 {
entry:
  %this.addr = alloca ptr, align 8
  %p.addr = alloca ptr, align 8
  store ptr %this, ptr %this.addr, align 8
  store ptr %p, ptr %p.addr, align 8
  %0 = load ptr, ptr %p.addr, align 8
  %isnull = icmp eq ptr %0, null
  br i1 %isnull, label %delete.end, label %delete.notnull

delete.notnull:                                   ; preds = %entry
  call void @_ZN9grpc_core12BatchBuilder5BatchD1Ev(ptr noundef nonnull align 8 dereferenceable(120) %0) #3
  call void @_ZdlPv(ptr noundef %0) #18
  br label %delete.end

delete.end:                                       ; preds = %delete.notnull, %entry
  ret void
}

; Function Attrs: mustprogress nounwind uwtable
define linkonce_odr noundef ptr @_ZNK9grpc_core5Party5arenaEv(ptr noundef nonnull align 8 dereferenceable(168) %this) #4 comdat align 2 {
entry:
  %this.addr = alloca ptr, align 8
  store ptr %this, ptr %this.addr, align 8
  %this1 = load ptr, ptr %this.addr, align 8
  %arena_ = getelementptr inbounds %"class.grpc_core::Party", ptr %this1, i32 0, i32 3
  %0 = load ptr, ptr %arena_, align 8
  ret ptr %0
}

; Function Attrs: mustprogress nounwind uwtable
define linkonce_odr noundef ptr @_ZNK9grpc_core13RefCountedPtrINS_5PartyEEptEv(ptr noundef nonnull align 8 dereferenceable(8) %this) #4 comdat align 2 {
entry:
  %this.addr = alloca ptr, align 8
  store ptr %this, ptr %this.addr, align 8
  %this1 = load ptr, ptr %this.addr, align 8
  %value_ = getelementptr inbounds %"class.grpc_core::RefCountedPtr.400", ptr %this1, i32 0, i32 0
  %0 = load ptr, ptr %value_, align 8
  ret ptr %0
}

; Function Attrs: noreturn nounwind uwtable
define linkonce_odr hidden void @__clang_call_terminate(ptr noundef %0) #7 comdat {
  %2 = call ptr @__cxa_begin_catch(ptr %0) #3
  call void @_ZSt9terminatev() #16
  unreachable
}

; Function Attrs: mustprogress uwtable
define linkonce_odr void @_ZN9grpc_core12BatchBuilder5Batch5UnrefEv(ptr noundef nonnull align 8 dereferenceable(120) %this) #5 comdat align 2 {
entry:
  %this.addr = alloca ptr, align 8
  store ptr %this, ptr %this.addr, align 8
  %this1 = load ptr, ptr %this.addr, align 8
  %refs = getelementptr inbounds %"struct.grpc_core::BatchBuilder::Batch", ptr %this1, i32 0, i32 7
  %0 = load i8, ptr %refs, align 8
  %dec = add i8 %0, -1
  store i8 %dec, ptr %refs, align 8
  %conv = zext i8 %dec to i32
  %cmp = icmp eq i32 %conv, 0
  br i1 %cmp, label %if.then, label %if.end

if.then:                                          ; preds = %entry
  %party = getelementptr inbounds %"struct.grpc_core::BatchBuilder::Batch", ptr %this1, i32 0, i32 5
  %call = call noundef ptr @_ZNK9grpc_core13RefCountedPtrINS_5PartyEEptEv(ptr noundef nonnull align 8 dereferenceable(8) %party)
  %call2 = call noundef ptr @_ZNK9grpc_core5Party5arenaEv(ptr noundef nonnull align 8 dereferenceable(168) %call)
  call void @_ZN9grpc_core5Arena12DeletePooledINS_12BatchBuilder5BatchEEEvPT_(ptr noundef nonnull align 8 dereferenceable(48) %call2, ptr noundef %this1)
  br label %if.end

if.end:                                           ; preds = %if.then, %entry
  ret void
}

; Function Attrs: mustprogress nounwind uwtable
define linkonce_odr void @_ZN9grpc_core13RefCountedPtrINS_12BatchBuilder5BatchEED2Ev(ptr noundef nonnull align 8 dereferenceable(8) %this) unnamed_addr #4 comdat align 2 personality ptr @__gxx_personality_v0 {
entry:
  %this.addr = alloca ptr, align 8
  store ptr %this, ptr %this.addr, align 8
  %this1 = load ptr, ptr %this.addr, align 8
  %value_ = getelementptr inbounds %"class.grpc_core::RefCountedPtr.234", ptr %this1, i32 0, i32 0
  %0 = load ptr, ptr %value_, align 8
  %cmp = icmp ne ptr %0, null
  br i1 %cmp, label %if.then, label %if.end

if.then:                                          ; preds = %entry
  %value_2 = getelementptr inbounds %"class.grpc_core::RefCountedPtr.234", ptr %this1, i32 0, i32 0
  %1 = load ptr, ptr %value_2, align 8
  invoke void @_ZN9grpc_core12BatchBuilder5Batch5UnrefEv(ptr noundef nonnull align 8 dereferenceable(120) %1)
          to label %invoke.cont unwind label %terminate.lpad

invoke.cont:                                      ; preds = %if.then
  br label %if.end

if.end:                                           ; preds = %invoke.cont, %entry
  ret void

terminate.lpad:                                   ; preds = %if.then
  %2 = landingpad { ptr, i32 }
          catch ptr null
  %3 = extractvalue { ptr, i32 } %2, 0
  call void @__clang_call_terminate(ptr %3) #16
  unreachable
}

; Function Attrs: mustprogress nounwind uwtable
define linkonce_odr void @_ZZN9grpc_core12BatchBuilder5Batch8RefUntilIZNS_5LatchIN4absl12lts_202308026StatusEE11WaitAndCopyEvEUlvE_EEDaT_ENUlvE_D2Ev(ptr noundef nonnull align 8 dereferenceable(16) %this) unnamed_addr #4 comdat align 2 {
entry:
  %this.addr = alloca ptr, align 8
  store ptr %this, ptr %this.addr, align 8
  %this1 = load ptr, ptr %this.addr, align 8
  %0 = getelementptr inbounds %class.anon.233, ptr %this1, i32 0, i32 0
  call void @_ZN9grpc_core13RefCountedPtrINS_12BatchBuilder5BatchEED2Ev(ptr noundef nonnull align 8 dereferenceable(8) %0) #3
  ret void
}

; Function Attrs: mustprogress nounwind uwtable
define linkonce_odr void @_ZN9grpc_core14promise_detail11PromiseLikeIZNS_12BatchBuilder5Batch8RefUntilIZNS_5LatchIN4absl12lts_202308026StatusEE11WaitAndCopyEvEUlvE_EEDaT_EUlvE_vED2Ev(ptr noundef nonnull align 8 dereferenceable(16) %this) unnamed_addr #4 comdat align 2 {
entry:
  %this.addr = alloca ptr, align 8
  store ptr %this, ptr %this.addr, align 8
  %this1 = load ptr, ptr %this.addr, align 8
  %f_ = getelementptr inbounds %"class.grpc_core::promise_detail::PromiseLike.232", ptr %this1, i32 0, i32 0
  call void @_ZZN9grpc_core12BatchBuilder5Batch8RefUntilIZNS_5LatchIN4absl12lts_202308026StatusEE11WaitAndCopyEvEUlvE_EEDaT_ENUlvE_D2Ev(ptr noundef nonnull align 8 dereferenceable(16) %f_) #3
  ret void
}

; Function Attrs: mustprogress nounwind uwtable
define linkonce_odr void @_ZN9grpc_core14promise_detail18OncePromiseFactoryIvZNS_12BatchBuilder5Batch8RefUntilIZNS_5LatchIN4absl12lts_202308026StatusEE11WaitAndCopyEvEUlvE_EEDaT_EUlvE_ED2Ev(ptr noundef nonnull align 8 dereferenceable(16) %this) unnamed_addr #4 comdat align 2 {
entry:
  %this.addr = alloca ptr, align 8
  store ptr %this, ptr %this.addr, align 8
  %this1 = load ptr, ptr %this.addr, align 8
  %f_ = getelementptr inbounds %"class.grpc_core::promise_detail::OncePromiseFactory.632", ptr %this1, i32 0, i32 0
  call void @_ZZN9grpc_core12BatchBuilder5Batch8RefUntilIZNS_5LatchIN4absl12lts_202308026StatusEE11WaitAndCopyEvEUlvE_EEDaT_ENUlvE_D2Ev(ptr noundef nonnull align 8 dereferenceable(16) %f_) #3
  ret void
}

; Function Attrs: mustprogress nounwind uwtable
define linkonce_odr void @_ZN9grpc_core8DestructINS_14promise_detail11PromiseLikeIZNS_12BatchBuilder5Batch8RefUntilIZNS_5LatchIN4absl12lts_202308026StatusEE11WaitAndCopyEvEUlvE_EEDaT_EUlvE_vEEEEvPSC_(ptr noundef %p) #4 comdat {
entry:
  %p.addr = alloca ptr, align 8
  store ptr %p, ptr %p.addr, align 8
  %0 = load ptr, ptr %p.addr, align 8
  call void @_ZN9grpc_core14promise_detail11PromiseLikeIZNS_12BatchBuilder5Batch8RefUntilIZNS_5LatchIN4absl12lts_202308026StatusEE11WaitAndCopyEvEUlvE_EEDaT_EUlvE_vED2Ev(ptr noundef nonnull align 8 dereferenceable(16) %0) #3
  ret void
}

; Function Attrs: mustprogress nounwind uwtable
define linkonce_odr void @_ZN9grpc_core8DestructINS_14promise_detail18OncePromiseFactoryIvZNS_12BatchBuilder5Batch8RefUntilIZNS_5LatchIN4absl12lts_202308026StatusEE11WaitAndCopyEvEUlvE_EEDaT_EUlvE_EEEEvPSC_(ptr noundef %p) #4 comdat {
entry:
  %p.addr = alloca ptr, align 8
  store ptr %p, ptr %p.addr, align 8
  %0 = load ptr, ptr %p.addr, align 8
  call void @_ZN9grpc_core14promise_detail18OncePromiseFactoryIvZNS_12BatchBuilder5Batch8RefUntilIZNS_5LatchIN4absl12lts_202308026StatusEE11WaitAndCopyEvEUlvE_EEDaT_EUlvE_ED2Ev(ptr noundef nonnull align 8 dereferenceable(16) %0) #3
  ret void
}

; Function Attrs: mustprogress nounwind uwtable
define internal void @"_ZN9grpc_core5Party15ParticipantImplIZNS_12BatchBuilder5Batch8RefUntilIZNS_5LatchIN4absl12lts_202308026StatusEE11WaitAndCopyEvEUlvE_EEDaT_EUlvE_ZZNS_12_GLOBAL__N_121MakeServerCallPromiseEPNS_9TransportENS_8CallArgsESt8functionIFNS_12ArenaPromiseISt10unique_ptrI19grpc_metadata_batchNS_5Arena13PooledDeleterEEEESG_EEEN3$_2clENS_10NextResultISN_EEEUlS8_E_ED2Ev"(ptr noundef nonnull align 8 dereferenceable(56) %this) unnamed_addr #4 align 2 {
entry:
  %this.addr = alloca ptr, align 8
  store ptr %this, ptr %this.addr, align 8
  %this1 = load ptr, ptr %this.addr, align 8
  %started_ = getelementptr inbounds %"class.grpc_core::Party::ParticipantImpl.630", ptr %this1, i32 0, i32 2
  %0 = load i8, ptr %started_, align 8
  %tobool = trunc i8 %0 to i1
  br i1 %tobool, label %if.else, label %if.then

if.then:                                          ; preds = %entry
  %1 = getelementptr inbounds %"class.grpc_core::Party::ParticipantImpl.630", ptr %this1, i32 0, i32 1
  call void @_ZN9grpc_core8DestructINS_14promise_detail18OncePromiseFactoryIvZNS_12BatchBuilder5Batch8RefUntilIZNS_5LatchIN4absl12lts_202308026StatusEE11WaitAndCopyEvEUlvE_EEDaT_EUlvE_EEEEvPSC_(ptr noundef %1)
  br label %if.end

if.else:                                          ; preds = %entry
  %2 = getelementptr inbounds %"class.grpc_core::Party::ParticipantImpl.630", ptr %this1, i32 0, i32 1
  call void @_ZN9grpc_core8DestructINS_14promise_detail11PromiseLikeIZNS_12BatchBuilder5Batch8RefUntilIZNS_5LatchIN4absl12lts_202308026StatusEE11WaitAndCopyEvEUlvE_EEDaT_EUlvE_vEEEEvPSC_(ptr noundef %2)
  br label %if.end

if.end:                                           ; preds = %if.else, %if.then
  call void @_ZN9grpc_core5Party11ParticipantD2Ev(ptr noundef nonnull align 8 dereferenceable(32) %this1) #3
  ret void
}

; Function Attrs: mustprogress nounwind uwtable
define linkonce_odr noundef ptr @_ZN9grpc_core14promise_detail7ContextINS_5ArenaEE3getEv() #4 comdat align 2 {
entry:
  %0 = call align 8 ptr @llvm.threadlocal.address.p0(ptr align 8 @_ZN9grpc_core14promise_detail7ContextINS_5ArenaEE8current_E)
  %1 = load ptr, ptr %0, align 8
  ret ptr %1
}

; Function Attrs: mustprogress nounwind uwtable
define internal void @"_ZN9grpc_core5Arena12DeletePooledINS_5Party15ParticipantImplIZNS_12BatchBuilder5Batch8RefUntilIZNS_5LatchIN4absl12lts_202308026StatusEE11WaitAndCopyEvEUlvE_EEDaT_EUlvE_ZZNS_12_GLOBAL__N_121MakeServerCallPromiseEPNS_9TransportENS_8CallArgsESt8functionIFNS_12ArenaPromiseISt10unique_ptrI19grpc_metadata_batchNS0_13PooledDeleterEEEESI_EEEN3$_2clENS_10NextResultISO_EEEUlSA_E_EEEEvPSD_"(ptr noundef nonnull align 8 dereferenceable(48) %this, ptr noundef %p) #4 align 2 {
entry:
  %this.addr = alloca ptr, align 8
  %p.addr = alloca ptr, align 8
  store ptr %this, ptr %this.addr, align 8
  store ptr %p, ptr %p.addr, align 8
  %0 = load ptr, ptr %p.addr, align 8
  %isnull = icmp eq ptr %0, null
  br i1 %isnull, label %delete.end, label %delete.notnull

delete.notnull:                                   ; preds = %entry
  call void @"_ZN9grpc_core5Party15ParticipantImplIZNS_12BatchBuilder5Batch8RefUntilIZNS_5LatchIN4absl12lts_202308026StatusEE11WaitAndCopyEvEUlvE_EEDaT_EUlvE_ZZNS_12_GLOBAL__N_121MakeServerCallPromiseEPNS_9TransportENS_8CallArgsESt8functionIFNS_12ArenaPromiseISt10unique_ptrI19grpc_metadata_batchNS_5Arena13PooledDeleterEEEESG_EEEN3$_2clENS_10NextResultISN_EEEUlS8_E_ED2Ev"(ptr noundef nonnull align 8 dereferenceable(56) %0) #3
  call void @_ZdlPv(ptr noundef %0) #18
  br label %delete.end

delete.end:                                       ; preds = %delete.notnull, %entry
  ret void
}

; Function Attrs: mustprogress uwtable
define linkonce_odr noundef ptr @_ZN9grpc_core10GetContextINS_5ArenaEEEPT_v() #5 comdat {
entry:
  %p = alloca ptr, align 8
  %call = call noundef ptr @_ZN9grpc_core14promise_detail7ContextINS_5ArenaEE3getEv()
  store ptr %call, ptr %p, align 8
  br label %do.body

do.body:                                          ; preds = %entry
  %0 = load ptr, ptr %p, align 8
  %cmp = icmp ne ptr %0, null
  %lnot = xor i1 %cmp, true
  br i1 %lnot, label %if.then, label %if.end

if.then:                                          ; preds = %do.body
  call void @gpr_assertion_failed(ptr noundef @.str.19, i32 noundef 80, ptr noundef @.str.20) #17
  unreachable

if.end:                                           ; preds = %do.body
  br label %do.end

do.end:                                           ; preds = %if.end
  %1 = load ptr, ptr %p, align 8
  ret ptr %1
}

; Function Attrs: mustprogress uwtable
define internal void @"_ZN9grpc_core5Party15ParticipantImplIZNS_12BatchBuilder5Batch8RefUntilIZNS_5LatchIN4absl12lts_202308026StatusEE11WaitAndCopyEvEUlvE_EEDaT_EUlvE_ZZNS_12_GLOBAL__N_121MakeServerCallPromiseEPNS_9TransportENS_8CallArgsESt8functionIFNS_12ArenaPromiseISt10unique_ptrI19grpc_metadata_batchNS_5Arena13PooledDeleterEEEESG_EEEN3$_2clENS_10NextResultISN_EEEUlS8_E_E7DestroyEv"(ptr noundef nonnull align 8 dereferenceable(56) %this) unnamed_addr #5 align 2 {
entry:
  %this.addr = alloca ptr, align 8
  store ptr %this, ptr %this.addr, align 8
  %this1 = load ptr, ptr %this.addr, align 8
  %call = call noundef ptr @_ZN9grpc_core10GetContextINS_5ArenaEEEPT_v()
  call void @"_ZN9grpc_core5Arena12DeletePooledINS_5Party15ParticipantImplIZNS_12BatchBuilder5Batch8RefUntilIZNS_5LatchIN4absl12lts_202308026StatusEE11WaitAndCopyEvEUlvE_EEDaT_EUlvE_ZZNS_12_GLOBAL__N_121MakeServerCallPromiseEPNS_9TransportENS_8CallArgsESt8functionIFNS_12ArenaPromiseISt10unique_ptrI19grpc_metadata_batchNS0_13PooledDeleterEEEESI_EEEN3$_2clENS_10NextResultISO_EEEUlSA_E_EEEEvPSD_"(ptr noundef nonnull align 8 dereferenceable(48) %call, ptr noundef %this1)
  ret void
}