; Function Attrs: mustprogress uwtable
define internal void @"_ZN9grpc_core5Party15ParticipantImplIZNS_12BatchBuilder5Batch8RefUntilIZNS_5LatchIN4absl12lts_202308026StatusEE11WaitAndCopyEvEUlvE_EEDaT_EUlvE_ZZNS_12_GLOBAL__N_121MakeServerCallPromiseEPNS_9TransportENS_8CallArgsESt8functionIFNS_12ArenaPromiseISt10unique_ptrI19grpc_metadata_batchNS_5Arena13PooledDeleterEEEESG_EEEN3$_2clENS_10NextResultISN_EEEUlS8_E_E7DestroyEv"(ptr noundef nonnull align 8 dereferenceable(56) %this) unnamed_addr #3 align 2 personality ptr @__gxx_personality_v0 {
entry:
  %0 = tail call align 8 ptr @llvm.threadlocal.address.p0(ptr align 8 @_ZN9grpc_core14promise_detail7ContextINS_5ArenaEE8current_E)
  %1 = load ptr, ptr %0, align 8
  %cmp.not.i = icmp eq ptr %1, null
  br i1 %cmp.not.i, label %if.then.i, label %_ZN9grpc_core10GetContextINS_5ArenaEEEPT_v.exit

if.then.i:                                        ; preds = %entry
  tail call void @gpr_assertion_failed(ptr noundef nonnull @.str.19, i32 noundef 80, ptr noundef nonnull @.str.20) #25
  unreachable

_ZN9grpc_core10GetContextINS_5ArenaEEEPT_v.exit:  ; preds = %entry
  %started_.i.i = getelementptr inbounds i8, ptr %this, i64 48
  %2 = load i8, ptr %started_.i.i, align 8
  %3 = and i8 %2, 1
  %tobool.not.i.i = icmp eq i8 %3, 0
  %4 = getelementptr inbounds i8, ptr %this, i64 32
  %5 = load ptr, ptr %4, align 8
  %cmp.not.i.i.i.i.i.i = icmp eq ptr %5, null
  br i1 %tobool.not.i.i, label %if.then.i.i, label %if.else.i.i

if.then.i.i:                                      ; preds = %_ZN9grpc_core10GetContextINS_5ArenaEEEPT_v.exit
  br i1 %cmp.not.i.i.i.i.i.i, label %"_ZN9grpc_core5Arena12DeletePooledINS_5Party15ParticipantImplIZNS_12BatchBuilder5Batch8RefUntilIZNS_5LatchIN4absl12lts_202308026StatusEE11WaitAndCopyEvEUlvE_EEDaT_EUlvE_ZZNS_12_GLOBAL__N_121MakeServerCallPromiseEPNS_9TransportENS_8CallArgsESt8functionIFNS_12ArenaPromiseISt10unique_ptrI19grpc_metadata_batchNS0_13PooledDeleterEEEESI_EEEN3$_2clENS_10NextResultISO_EEEUlSA_E_EEEEvPSD_.exit", label %if.then.i.i.i.i.i.i

if.then.i.i.i.i.i.i:                              ; preds = %if.then.i.i
  %refs.i.i.i.i.i.i.i = getelementptr inbounds i8, ptr %5, i64 112
  %6 = load i8, ptr %refs.i.i.i.i.i.i.i, align 8
  %dec.i.i.i.i.i.i.i = add i8 %6, -1
  store i8 %dec.i.i.i.i.i.i.i, ptr %refs.i.i.i.i.i.i.i, align 8
  %cmp.i.i.i.i.i.i.i = icmp eq i8 %dec.i.i.i.i.i.i.i, 0
  br i1 %cmp.i.i.i.i.i.i.i, label %if.end.sink.split.i.i, label %"_ZN9grpc_core5Arena12DeletePooledINS_5Party15ParticipantImplIZNS_12BatchBuilder5Batch8RefUntilIZNS_5LatchIN4absl12lts_202308026StatusEE11WaitAndCopyEvEUlvE_EEDaT_EUlvE_ZZNS_12_GLOBAL__N_121MakeServerCallPromiseEPNS_9TransportENS_8CallArgsESt8functionIFNS_12ArenaPromiseISt10unique_ptrI19grpc_metadata_batchNS0_13PooledDeleterEEEESI_EEEN3$_2clENS_10NextResultISO_EEEUlSA_E_EEEEvPSD_.exit"

if.else.i.i:                                      ; preds = %_ZN9grpc_core10GetContextINS_5ArenaEEEPT_v.exit
  br i1 %cmp.not.i.i.i.i.i.i, label %"_ZN9grpc_core5Arena12DeletePooledINS_5Party15ParticipantImplIZNS_12BatchBuilder5Batch8RefUntilIZNS_5LatchIN4absl12lts_202308026StatusEE11WaitAndCopyEvEUlvE_EEDaT_EUlvE_ZZNS_12_GLOBAL__N_121MakeServerCallPromiseEPNS_9TransportENS_8CallArgsESt8functionIFNS_12ArenaPromiseISt10unique_ptrI19grpc_metadata_batchNS0_13PooledDeleterEEEESI_EEEN3$_2clENS_10NextResultISO_EEEUlSA_E_EEEEvPSD_.exit", label %if.then.i.i.i.i2.i.i

if.then.i.i.i.i2.i.i:                             ; preds = %if.else.i.i
  %refs.i.i.i.i.i3.i.i = getelementptr inbounds i8, ptr %5, i64 112
  %7 = load i8, ptr %refs.i.i.i.i.i3.i.i, align 8
  %dec.i.i.i.i.i4.i.i = add i8 %7, -1
  store i8 %dec.i.i.i.i.i4.i.i, ptr %refs.i.i.i.i.i3.i.i, align 8
  %cmp.i.i.i.i.i5.i.i = icmp eq i8 %dec.i.i.i.i.i4.i.i, 0
  br i1 %cmp.i.i.i.i.i5.i.i, label %if.end.sink.split.i.i, label %"_ZN9grpc_core5Arena12DeletePooledINS_5Party15ParticipantImplIZNS_12BatchBuilder5Batch8RefUntilIZNS_5LatchIN4absl12lts_202308026StatusEE11WaitAndCopyEvEUlvE_EEDaT_EUlvE_ZZNS_12_GLOBAL__N_121MakeServerCallPromiseEPNS_9TransportENS_8CallArgsESt8functionIFNS_12ArenaPromiseISt10unique_ptrI19grpc_metadata_batchNS0_13PooledDeleterEEEESI_EEEN3$_2clENS_10NextResultISO_EEEUlSA_E_EEEEvPSD_.exit"

if.end.sink.split.i.i:                            ; preds = %if.then.i.i.i.i2.i.i, %if.then.i.i.i.i.i.i
  tail call void @_ZN9grpc_core12BatchBuilder5BatchD1Ev(ptr noundef nonnull align 8 dereferenceable(120) %5) #23
  tail call void @_ZdlPv(ptr noundef nonnull %5) #26
  br label %"_ZN9grpc_core5Arena12DeletePooledINS_5Party15ParticipantImplIZNS_12BatchBuilder5Batch8RefUntilIZNS_5LatchIN4absl12lts_202308026StatusEE11WaitAndCopyEvEUlvE_EEDaT_EUlvE_ZZNS_12_GLOBAL__N_121MakeServerCallPromiseEPNS_9TransportENS_8CallArgsESt8functionIFNS_12ArenaPromiseISt10unique_ptrI19grpc_metadata_batchNS0_13PooledDeleterEEEESI_EEEN3$_2clENS_10NextResultISO_EEEUlSA_E_EEEEvPSD_.exit"

"_ZN9grpc_core5Arena12DeletePooledINS_5Party15ParticipantImplIZNS_12BatchBuilder5Batch8RefUntilIZNS_5LatchIN4absl12lts_202308026StatusEE11WaitAndCopyEvEUlvE_EEDaT_EUlvE_ZZNS_12_GLOBAL__N_121MakeServerCallPromiseEPNS_9TransportENS_8CallArgsESt8functionIFNS_12ArenaPromiseISt10unique_ptrI19grpc_metadata_batchNS0_13PooledDeleterEEEESI_EEEN3$_2clENS_10NextResultISO_EEEUlSA_E_EEEEvPSD_.exit": ; preds = %if.then.i.i, %if.then.i.i.i.i.i.i, %if.else.i.i, %if.then.i.i.i.i2.i.i, %if.end.sink.split.i.i
  tail call void @_ZN9grpc_core5Party11ParticipantD2Ev(ptr noundef nonnull align 8 dereferenceable(32) %this) #23
  tail call void @_ZdlPv(ptr noundef nonnull %this) #26
  ret void
}